; Function Attrs: mustprogress uwtable
define hidden void @_ZN3smt9theory_pb4card12set_conflictERS0_N3sat7literalE(ptr noundef nonnull align 8 captures(none) dereferenceable(29) %0, ptr noundef nonnull align 8 dereferenceable(968) %1, i32 %2) local_unnamed_addr #4 align 2 {
  %4 = getelementptr inbounds nuw i8, ptr %1, i64 704
  %5 = load ptr, ptr %4, align 8, !tbaa !666
  %.not.i.i = icmp eq ptr %5, null
  br i1 %.not.i.i, label %_ZN3smt9theory_pb12get_literalsEv.exit.thread, label %7

_ZN3smt9theory_pb12get_literalsEv.exit.thread:    ; preds = %3
  %.sroa.0.0.copyload.i19 = load i32, ptr %0, align 8, !tbaa !9
  %6 = xor i32 %.sroa.0.0.copyload.i19, 1
  br label %13

7:                                                ; preds = %3
  %8 = getelementptr inbounds i8, ptr %5, i64 -4
  store i32 0, ptr %8, align 4, !tbaa !9
  %.sroa.0.0.copyload.i = load i32, ptr %0, align 8, !tbaa !9
  %9 = xor i32 %.sroa.0.0.copyload.i, 1
  %10 = getelementptr inbounds i8, ptr %5, i64 -8
  %11 = load i32, ptr %10, align 4, !tbaa !9
  %12 = icmp eq i32 %11, 0
  br i1 %12, label %13, label %15

13:                                               ; preds = %_ZN3smt9theory_pb12get_literalsEv.exit.thread, %7
  %14 = phi i32 [ %6, %_ZN3smt9theory_pb12get_literalsEv.exit.thread ], [ %9, %7 ]
  tail call void @_ZN6vectorIN3sat7literalELb0EjE13expand_vectorEv(ptr noundef nonnull align 8 dereferenceable(8) %4)
  %.pre.i = load ptr, ptr %4, align 8, !tbaa !666
  %.phi.trans.insert.i = getelementptr inbounds i8, ptr %.pre.i, i64 -4
  %.pre2.i = load i32, ptr %.phi.trans.insert.i, align 4, !tbaa !9
  br label %15

15:                                               ; preds = %13, %7
  %16 = phi i32 [ %14, %13 ], [ %9, %7 ]
  %17 = phi i32 [ %.pre2.i, %13 ], [ 0, %7 ]
  %18 = phi ptr [ %.pre.i, %13 ], [ %5, %7 ]
  %19 = getelementptr inbounds i8, ptr %18, i64 -4
  %20 = zext i32 %17 to i64
  %21 = getelementptr inbounds nuw %"class.sat::literal", ptr %18, i64 %20
  store i32 %16, ptr %21, align 4, !tbaa !9
  %22 = add i32 %17, 1
  store i32 %22, ptr %19, align 4, !tbaa !9
  %23 = getelementptr inbounds i8, ptr %18, i64 -8
  %24 = load i32, ptr %23, align 4, !tbaa !9
  %25 = icmp eq i32 %22, %24
  br i1 %25, label %26, label %_ZN6vectorIN3sat7literalELb0EjE9push_backERKS1_.exit

26:                                               ; preds = %15
  tail call void @_ZN6vectorIN3sat7literalELb0EjE13expand_vectorEv(ptr noundef nonnull align 8 dereferenceable(8) %4)
  %.pre.i11 = load ptr, ptr %4, align 8, !tbaa !666
  %.phi.trans.insert.i12 = getelementptr inbounds i8, ptr %.pre.i11, i64 -4
  %.pre2.i13 = load i32, ptr %.phi.trans.insert.i12, align 4, !tbaa !9
  br label %_ZN6vectorIN3sat7literalELb0EjE9push_backERKS1_.exit

_ZN6vectorIN3sat7literalELb0EjE9push_backERKS1_.exit: ; preds = %15, %26
  %27 = phi i32 [ %.pre2.i13, %26 ], [ %22, %15 ]
  %28 = phi ptr [ %.pre.i11, %26 ], [ %18, %15 ]
  %29 = getelementptr inbounds i8, ptr %28, i64 -4
  %30 = zext i32 %27 to i64
  %31 = getelementptr inbounds nuw %"class.sat::literal", ptr %28, i64 %30
  store i32 %2, ptr %31, align 4, !tbaa !9
  %32 = add i32 %27, 1
  store i32 %32, ptr %29, align 4, !tbaa !9
  %33 = getelementptr inbounds nuw i8, ptr %0, i64 8
  %34 = load ptr, ptr %33, align 8, !tbaa !666
  %35 = icmp eq ptr %34, null
  br i1 %35, label %._crit_edge, label %_ZNK3smt9theory_pb4card4sizeEv.exit

_ZNK3smt9theory_pb4card4sizeEv.exit:              ; preds = %_ZN6vectorIN3sat7literalELb0EjE9push_backERKS1_.exit
  %36 = getelementptr inbounds i8, ptr %34, i64 -4
  %37 = load i32, ptr %36, align 4, !tbaa !9
  %38 = getelementptr inbounds nuw i8, ptr %0, i64 16
  %39 = load i32, ptr %38, align 8, !tbaa !667
  %40 = icmp ult i32 %39, %37
  br i1 %40, label %.lr.ph.preheader, label %._crit_edge

.lr.ph.preheader:                                 ; preds = %_ZNK3smt9theory_pb4card4sizeEv.exit
  %41 = zext i32 %39 to i64
  br label %42

._crit_edge:                                      ; preds = %_ZN6vectorIN3sat7literalELb0EjE9push_backERKS1_.exit17, %_ZN6vectorIN3sat7literalELb0EjE9push_backERKS1_.exit, %_ZNK3smt9theory_pb4card4sizeEv.exit
  tail call void @_ZN3smt9theory_pb10add_clauseERNS0_4cardERK7svectorIN3sat7literalEjE(ptr noundef nonnull align 8 dereferenceable(968) %1, ptr noundef nonnull align 8 dereferenceable(29) %0, ptr noundef nonnull align 8 dereferenceable(8) %4)
  ret void

42:                                               ; preds = %_ZN6vectorIN3sat7literalELb0EjE9push_backERKS1_.exit17, %.lr.ph.preheader
  %43 = phi i32 [ %32, %.lr.ph.preheader ], [ %57, %_ZN6vectorIN3sat7literalELb0EjE9push_backERKS1_.exit17 ]
  %44 = phi ptr [ %28, %.lr.ph.preheader ], [ %51, %_ZN6vectorIN3sat7literalELb0EjE9push_backERKS1_.exit17 ]
  %indvars.iv = phi i64 [ %41, %.lr.ph.preheader ], [ %indvars.iv.next, %_ZN6vectorIN3sat7literalELb0EjE9push_backERKS1_.exit17 ]
  %45 = load ptr, ptr %33, align 8, !tbaa !666
  %46 = getelementptr inbounds nuw %"class.sat::literal", ptr %45, i64 %indvars.iv
  %47 = getelementptr inbounds i8, ptr %44, i64 -8
  %48 = load i32, ptr %47, align 4, !tbaa !9
  %49 = icmp eq i32 %43, %48
  br i1 %49, label %50, label %_ZN6vectorIN3sat7literalELb0EjE9push_backERKS1_.exit17

50:                                               ; preds = %42
  tail call void @_ZN6vectorIN3sat7literalELb0EjE13expand_vectorEv(ptr noundef nonnull align 8 dereferenceable(8) %4)
  %.pre.i14 = load ptr, ptr %4, align 8, !tbaa !666
  %.phi.trans.insert.i15 = getelementptr inbounds i8, ptr %.pre.i14, i64 -4
  %.pre2.i16 = load i32, ptr %.phi.trans.insert.i15, align 4, !tbaa !9
  br label %_ZN6vectorIN3sat7literalELb0EjE9push_backERKS1_.exit17

_ZN6vectorIN3sat7literalELb0EjE9push_backERKS1_.exit17: ; preds = %42, %50
  %51 = phi ptr [ %.pre.i14, %50 ], [ %44, %42 ]
  %52 = phi i32 [ %.pre2.i16, %50 ], [ %43, %42 ]
  %53 = getelementptr inbounds i8, ptr %51, i64 -4
  %54 = zext i32 %52 to i64
  %55 = getelementptr inbounds nuw %"class.sat::literal", ptr %51, i64 %54
  %56 = load i32, ptr %46, align 4, !tbaa !9
  store i32 %56, ptr %55, align 4, !tbaa !9
  %57 = add i32 %52, 1
  store i32 %57, ptr %53, align 4, !tbaa !9
  %indvars.iv.next = add nuw nsw i64 %indvars.iv, 1
  %lftr.wideiv = trunc i64 %indvars.iv.next to i32
  %exitcond.not = icmp eq i32 %37, %lftr.wideiv
  br i1 %exitcond.not, label %._crit_edge, label %42, !llvm.loop !709
}